; Function Attrs: mustprogress nofree norecurse nosync nounwind willreturn memory(none) uwtable
define range(i32 458752, 720896) i32 @_ZN9grpc_core7Timeout11FromMinutesEl(i64 noundef %0) local_unnamed_addr #3 align 2 {
  %2 = icmp slt i64 %0, 1000
  br i1 %2, label %3, label %7

3:                                                ; preds = %1
  %4 = srem i64 %0, 60
  %.not17 = icmp eq i64 %4, 0
  br i1 %.not17, label %.thread, label %5

5:                                                ; preds = %3
  %6 = trunc i64 %0 to i16
  br label %23

7:                                                ; preds = %1
  %8 = icmp samesign ult i64 %0, 10000
  br i1 %8, label %9, label %13

9:                                                ; preds = %7
  %10 = trunc nuw i64 %0 to i16
  %.lhs.trunc = add nuw nsw i16 %10, 9
  %11 = udiv i16 %.lhs.trunc, 10
  %.lhs.trunc27 = mul nuw nsw i16 %11, 10
  %12 = urem i16 %.lhs.trunc27, 60
  %.not16.not = icmp eq i16 %12, 0
  br i1 %.not16.not, label %.thread, label %23

13:                                               ; preds = %7
  %14 = icmp samesign ult i64 %0, 100000
  br i1 %14, label %15, label %.thread

15:                                               ; preds = %13
  %16 = trunc nuw i64 %0 to i32
  %.lhs.trunc29 = add nuw nsw i32 %16, 99
  %17 = udiv i32 %.lhs.trunc29, 100
  %.lhs.trunc31 = mul nuw nsw i32 %17, 100
  %18 = urem i32 %.lhs.trunc31, 60
  %.not.not = icmp eq i32 %18, 0
  br i1 %.not.not, label %.thread, label %19

19:                                               ; preds = %15
  %20 = trunc nuw i32 %17 to i16
  br label %23

.thread:                                          ; preds = %15, %9, %13, %3
  %21 = add nsw i64 %0, 59
  %22 = sdiv i64 %21, 60
  %spec.select2.i = tail call i64 @llvm.smin.i64(i64 %22, i64 27000)
  %spec.select.i = trunc i64 %spec.select2.i to i16
  br label %23

23:                                               ; preds = %9, %19, %.thread, %5
  %.sroa.0.sroa.0.0 = phi i16 [ %spec.select.i, %.thread ], [ %6, %5 ], [ %20, %19 ], [ %11, %9 ]
  %.sroa.0.sroa.5.0 = phi i32 [ 655360, %.thread ], [ 458752, %5 ], [ 589824, %19 ], [ 524288, %9 ]
  %.sroa.0.sroa.0.0.insert.ext = zext i16 %.sroa.0.sroa.0.0 to i32
  %.sroa.0.sroa.0.0.insert.insert = or disjoint i32 %.sroa.0.sroa.5.0, %.sroa.0.sroa.0.0.insert.ext
  ret i32 %.sroa.0.sroa.0.0.insert.insert
}